; Function Attrs: mustprogress nofree norecurse nosync nounwind willreturn memory(argmem: read) uwtable
define hidden noundef zeroext i1 @_ZNK19OpenColorIO_v2_4dev9LogOpData8isCameraEv(ptr nocapture noundef nonnull readonly align 8 dereferenceable(252) %this) local_unnamed_addr #5 align 2 {
entry:
  %m_redParams = getelementptr inbounds i8, ptr %this, i64 168
  %_M_finish.i = getelementptr inbounds i8, ptr %this, i64 176
  %0 = load ptr, ptr %_M_finish.i, align 8
  %1 = load ptr, ptr %m_redParams, align 8
  %sub.ptr.lhs.cast.i = ptrtoint ptr %0 to i64
  %sub.ptr.rhs.cast.i = ptrtoint ptr %1 to i64
  %sub.ptr.sub.i = sub i64 %sub.ptr.lhs.cast.i, %sub.ptr.rhs.cast.i
  %cmp = icmp ugt i64 %sub.ptr.sub.i, 32
  ret i1 %cmp
}